target datalayout = "e-m:e-p270:32:32-p271:32:32-p272:64:64-i64:64-i128:128-f80:128-n8:16:32:64-S128"
target triple = "x86_64-pc-linux-gnu"

%"struct.cv::structured_light::GrayCodePattern::Params" = type { i32, i32 }
%"class.cv::structured_light::GrayCodePattern_Impl" = type { %"class.cv::structured_light::GrayCodePattern", %"struct.cv::structured_light::GrayCodePattern::Params", i64, i64, i64, i64, i64 }
%"class.cv::structured_light::GrayCodePattern" = type { %"class.cv::structured_light::StructuredLightPattern" }
%"class.cv::structured_light::StructuredLightPattern" = type { %"class.cv::Algorithm" }
%"class.cv::Algorithm" = type { ptr }
%"class.cv::Mat" = type { i32, i32, i32, i32, ptr, ptr, ptr, ptr, ptr, ptr, %"struct.cv::MatSize", %"struct.cv::MatStep" }
%"struct.cv::MatSize" = type { ptr }
%"struct.cv::MatStep" = type { ptr, [2 x i64] }
%"class.cv::_InputArray" = type { i32, ptr, %"class.cv::Size_" }
%"class.cv::Size_" = type { i32, i32 }
%"class.cv::Scalar_" = type { %"class.cv::Vec" }
%"class.cv::Vec" = type { %"class.cv::Matx" }
%"class.cv::Matx" = type { [4 x double] }

; Function Attrs: mustprogress nounwind uwtable
define linkonce_odr hidden void @_ZN2cv4MatxIdLi4ELi1EEC2Ev(ptr noundef nonnull align 8 dereferenceable(32) %0) unnamed_addr #4 comdat align 2 {
  %2 = alloca ptr, align 8
  %3 = alloca i32, align 4
  store ptr %0, ptr %2, align 8
  %4 = load ptr, ptr %2, align 8
  store i32 0, ptr %3, align 4
  br label %5

5:                                                ; preds = %13, %1
  %6 = load i32, ptr %3, align 4
  %7 = icmp slt i32 %6, 4
  br i1 %7, label %8, label %16

8:                                                ; preds = %5
  %9 = getelementptr inbounds %"class.cv::Matx", ptr %4, i32 0, i32 0
  %10 = load i32, ptr %3, align 4
  %11 = sext i32 %10 to i64
  %12 = getelementptr inbounds [4 x double], ptr %9, i64 0, i64 %11
  store double 0.000000e+00, ptr %12, align 8
  br label %13

13:                                               ; preds = %8
  %14 = load i32, ptr %3, align 4
  %15 = add nsw i32 %14, 1
  store i32 %15, ptr %3, align 4
  br label %5, !llvm.loop !36

16:                                               ; preds = %5
  ret void
}

; Function Attrs: mustprogress uwtable
define linkonce_odr hidden void @_ZN2cv3VecIdLi4EEC2Ev(ptr noundef nonnull align 8 dereferenceable(32) %0) unnamed_addr #5 comdat align 2 {
  %2 = alloca ptr, align 8
  store ptr %0, ptr %2, align 8
  %3 = load ptr, ptr %2, align 8
  call void @_ZN2cv4MatxIdLi4ELi1EEC2Ev(ptr noundef nonnull align 8 dereferenceable(32) %3)
  ret void
}

; Function Attrs: mustprogress uwtable
define linkonce_odr hidden void @_ZN2cv7Scalar_IdEC2Ed(ptr noundef nonnull align 8 dereferenceable(32) %0, double noundef %1) unnamed_addr #5 comdat align 2 {
  %3 = alloca ptr, align 8
  %4 = alloca double, align 8
  store ptr %0, ptr %3, align 8
  store double %1, ptr %4, align 8
  %5 = load ptr, ptr %3, align 8
  call void @_ZN2cv3VecIdLi4EEC2Ev(ptr noundef nonnull align 8 dereferenceable(32) %5)
  %6 = load double, ptr %4, align 8
  %7 = getelementptr inbounds %"class.cv::Matx", ptr %5, i32 0, i32 0
  %8 = getelementptr inbounds [4 x double], ptr %7, i64 0, i64 0
  store double %6, ptr %8, align 8
  %9 = getelementptr inbounds %"class.cv::Matx", ptr %5, i32 0, i32 0
  %10 = getelementptr inbounds [4 x double], ptr %9, i64 0, i64 3
  store double 0.000000e+00, ptr %10, align 8
  %11 = getelementptr inbounds %"class.cv::Matx", ptr %5, i32 0, i32 0
  %12 = getelementptr inbounds [4 x double], ptr %11, i64 0, i64 2
  store double 0.000000e+00, ptr %12, align 8
  %13 = getelementptr inbounds %"class.cv::Matx", ptr %5, i32 0, i32 0
  %14 = getelementptr inbounds [4 x double], ptr %13, i64 0, i64 1
  store double 0.000000e+00, ptr %14, align 8
  ret void
}

; Function Attrs: mustprogress nounwind uwtable
define linkonce_odr hidden noundef ptr @_ZNK2cv11_InputArray6getObjEv(ptr noundef nonnull align 8 dereferenceable(24) %0) #4 comdat align 2 {
  %2 = alloca ptr, align 8
  store ptr %0, ptr %2, align 8
  %3 = load ptr, ptr %2, align 8
  %4 = getelementptr inbounds %"class.cv::_InputArray", ptr %3, i32 0, i32 1
  %5 = load ptr, ptr %4, align 8
  ret ptr %5
}

; Function Attrs: mustprogress uwtable
define void @_ZNK2cv16structured_light20GrayCodePattern_Impl23getImagesForShadowMasksERKNS_17_InputOutputArrayES4_(ptr noundef nonnull align 8 dereferenceable(56) %0, ptr noundef nonnull align 8 dereferenceable(24) %1, ptr noundef nonnull align 8 dereferenceable(24) %2) unnamed_addr #5 align 2 personality ptr @__gxx_personality_v0 {
  %4 = alloca ptr, align 8
  %5 = alloca ptr, align 8
  %6 = alloca ptr, align 8
  %7 = alloca ptr, align 8
  %8 = alloca ptr, align 8
  %9 = alloca %"class.cv::Mat", align 8
  %10 = alloca %"class.cv::Scalar_", align 8
  %11 = alloca ptr, align 8
  %12 = alloca i32, align 4
  %13 = alloca %"class.cv::Mat", align 8
  %14 = alloca %"class.cv::Scalar_", align 8
  store ptr %0, ptr %4, align 8
  store ptr %1, ptr %5, align 8
  store ptr %2, ptr %6, align 8
  %15 = load ptr, ptr %4, align 8
  %16 = load ptr, ptr %5, align 8
  %17 = call noundef ptr @_ZNK2cv11_InputArray6getObjEv(ptr noundef nonnull align 8 dereferenceable(24) %16)
  store ptr %17, ptr %7, align 8
  %18 = load ptr, ptr %6, align 8
  %19 = call noundef ptr @_ZNK2cv11_InputArray6getObjEv(ptr noundef nonnull align 8 dereferenceable(24) %18)
  store ptr %19, ptr %8, align 8
  %20 = getelementptr inbounds %"class.cv::structured_light::GrayCodePattern_Impl", ptr %15, i32 0, i32 1
  %21 = getelementptr inbounds %"struct.cv::structured_light::GrayCodePattern::Params", ptr %20, i32 0, i32 1
  %22 = load i32, ptr %21, align 4
  %23 = getelementptr inbounds %"class.cv::structured_light::GrayCodePattern_Impl", ptr %15, i32 0, i32 1
  %24 = getelementptr inbounds %"struct.cv::structured_light::GrayCodePattern::Params", ptr %23, i32 0, i32 0
  %25 = load i32, ptr %24, align 8
  call void @_ZN2cv7Scalar_IdEC2Ed(ptr noundef nonnull align 8 dereferenceable(32) %10, double noundef 0.000000e+00)
  call void @_ZN2cv3MatC1EiiiRKNS_7Scalar_IdEE(ptr noundef nonnull align 8 dereferenceable(96) %9, i32 noundef %22, i32 noundef %25, i32 noundef 0, ptr noundef nonnull align 8 dereferenceable(32) %10)
  %26 = load ptr, ptr %7, align 8
  %27 = invoke noundef nonnull align 8 dereferenceable(96) ptr @_ZN2cv3MataSEOS0_(ptr noundef nonnull align 8 dereferenceable(96) %26, ptr noundef nonnull align 8 dereferenceable(96) %9)
          to label %28 unwind label %38

28:                                               ; preds = %3
  call void @_ZN2cv3MatD1Ev(ptr noundef nonnull align 8 dereferenceable(96) %9) #3
  %29 = getelementptr inbounds %"class.cv::structured_light::GrayCodePattern_Impl", ptr %15, i32 0, i32 1
  %30 = getelementptr inbounds %"struct.cv::structured_light::GrayCodePattern::Params", ptr %29, i32 0, i32 1
  %31 = load i32, ptr %30, align 4
  %32 = getelementptr inbounds %"class.cv::structured_light::GrayCodePattern_Impl", ptr %15, i32 0, i32 1
  %33 = getelementptr inbounds %"struct.cv::structured_light::GrayCodePattern::Params", ptr %32, i32 0, i32 0
  %34 = load i32, ptr %33, align 8
  call void @_ZN2cv7Scalar_IdEC2Ed(ptr noundef nonnull align 8 dereferenceable(32) %14, double noundef 2.550000e+02)
  call void @_ZN2cv3MatC1EiiiRKNS_7Scalar_IdEE(ptr noundef nonnull align 8 dereferenceable(96) %13, i32 noundef %31, i32 noundef %34, i32 noundef 0, ptr noundef nonnull align 8 dereferenceable(32) %14)
  %35 = load ptr, ptr %8, align 8
  %36 = invoke noundef nonnull align 8 dereferenceable(96) ptr @_ZN2cv3MataSEOS0_(ptr noundef nonnull align 8 dereferenceable(96) %35, ptr noundef nonnull align 8 dereferenceable(96) %13)
          to label %37 unwind label %42

37:                                               ; preds = %28
  call void @_ZN2cv3MatD1Ev(ptr noundef nonnull align 8 dereferenceable(96) %13) #3
  ret void

38:                                               ; preds = %3
  %39 = landingpad { ptr, i32 }
          cleanup
  %40 = extractvalue { ptr, i32 } %39, 0
  store ptr %40, ptr %11, align 8
  %41 = extractvalue { ptr, i32 } %39, 1
  store i32 %41, ptr %12, align 4
  call void @_ZN2cv3MatD1Ev(ptr noundef nonnull align 8 dereferenceable(96) %9) #3
  br label %46

42:                                               ; preds = %28
  %43 = landingpad { ptr, i32 }
          cleanup
  %44 = extractvalue { ptr, i32 } %43, 0
  store ptr %44, ptr %11, align 8
  %45 = extractvalue { ptr, i32 } %43, 1
  store i32 %45, ptr %12, align 4
  call void @_ZN2cv3MatD1Ev(ptr noundef nonnull align 8 dereferenceable(96) %13) #3
  br label %46

46:                                               ; preds = %42, %38
  %47 = load ptr, ptr %11, align 8
  %48 = load i32, ptr %12, align 4
  %49 = insertvalue { ptr, i32 } poison, ptr %47, 0
  %50 = insertvalue { ptr, i32 } %49, i32 %48, 1
  resume { ptr, i32 } %50
}