; Function Attrs: mustprogress uwtable
define void @_ZNK2cv16structured_light20GrayCodePattern_Impl23getImagesForShadowMasksERKNS_17_InputOutputArrayES4_(ptr nocapture noundef nonnull readonly align 8 dereferenceable(56) %0, ptr nocapture noundef nonnull readonly align 8 dereferenceable(24) %1, ptr nocapture noundef nonnull readonly align 8 dereferenceable(24) %2) unnamed_addr #7 align 2 personality ptr @__gxx_personality_v0 {
  %4 = alloca %"class.cv::Mat", align 8
  %5 = alloca %"class.cv::Scalar_", align 8
  %6 = alloca %"class.cv::Mat", align 8
  %7 = alloca %"class.cv::Scalar_", align 8
  %8 = getelementptr inbounds i8, ptr %1, i64 8
  %9 = load ptr, ptr %8, align 8
  %10 = getelementptr inbounds i8, ptr %2, i64 8
  %11 = load ptr, ptr %10, align 8
  %12 = getelementptr inbounds i8, ptr %0, i64 8
  %13 = getelementptr inbounds i8, ptr %0, i64 12
  %14 = load i32, ptr %13, align 4
  %15 = load i32, ptr %12, align 8
  call void @llvm.memset.p0.i64(ptr noundef nonnull align 8 dereferenceable(32) %5, i8 0, i64 32, i1 false)
  call void @_ZN2cv3MatC1EiiiRKNS_7Scalar_IdEE(ptr noundef nonnull align 8 dereferenceable(96) %4, i32 noundef %14, i32 noundef %15, i32 noundef 0, ptr noundef nonnull align 8 dereferenceable(32) %5)
  %16 = invoke noundef nonnull align 8 dereferenceable(96) ptr @_ZN2cv3MataSEOS0_(ptr noundef nonnull align 8 dereferenceable(96) %9, ptr noundef nonnull align 8 dereferenceable(96) %4)
          to label %17 unwind label %23

17:                                               ; preds = %3
  call void @_ZN2cv3MatD1Ev(ptr noundef nonnull align 8 dereferenceable(96) %4) #25
  %18 = load i32, ptr %13, align 4
  %19 = load i32, ptr %12, align 8
  store double 2.550000e+02, ptr %7, align 8
  %20 = getelementptr inbounds i8, ptr %7, i64 8
  call void @llvm.memset.p0.i64(ptr noundef nonnull align 8 dereferenceable(24) %20, i8 0, i64 24, i1 false)
  call void @_ZN2cv3MatC1EiiiRKNS_7Scalar_IdEE(ptr noundef nonnull align 8 dereferenceable(96) %6, i32 noundef %18, i32 noundef %19, i32 noundef 0, ptr noundef nonnull align 8 dereferenceable(32) %7)
  %21 = invoke noundef nonnull align 8 dereferenceable(96) ptr @_ZN2cv3MataSEOS0_(ptr noundef nonnull align 8 dereferenceable(96) %11, ptr noundef nonnull align 8 dereferenceable(96) %6)
          to label %22 unwind label %25

22:                                               ; preds = %17
  call void @_ZN2cv3MatD1Ev(ptr noundef nonnull align 8 dereferenceable(96) %6) #25
  ret void

23:                                               ; preds = %3
  %24 = landingpad { ptr, i32 }
          cleanup
  br label %27

25:                                               ; preds = %17
  %26 = landingpad { ptr, i32 }
          cleanup
  br label %27

27:                                               ; preds = %25, %23
  %.sink = phi ptr [ %6, %25 ], [ %4, %23 ]
  %.pn = phi { ptr, i32 } [ %26, %25 ], [ %24, %23 ]
  call void @_ZN2cv3MatD1Ev(ptr noundef nonnull align 8 dereferenceable(96) %.sink) #25
  resume { ptr, i32 } %.pn
}